target datalayout = "e-m:e-p270:32:32-p271:32:32-p272:64:64-i64:64-i128:128-f80:128-n8:16:32:64-S128"
target triple = "x86_64-pc-linux-gnu"

%struct.__va_list_tag = type { i32, i32, ptr, ptr }

@event_debug_logging_mask_ = global i32 0, align 4
@.str = private unnamed_addr constant [5 x i8] c": %s\00", align 1
@log_fn = internal global ptr null, align 8
@.str.1 = private unnamed_addr constant [6 x i8] c"debug\00", align 1
@.str.2 = private unnamed_addr constant [4 x i8] c"msg\00", align 1
@.str.3 = private unnamed_addr constant [5 x i8] c"warn\00", align 1
@.str.4 = private unnamed_addr constant [4 x i8] c"err\00", align 1
@.str.5 = private unnamed_addr constant [4 x i8] c"???\00", align 1
@stderr = external global ptr, align 8
@.str.6 = private unnamed_addr constant [9 x i8] c"[%s] %s\0A\00", align 1

; Function Attrs: nounwind uwtable
define internal void @event_log(i32 noundef %0, ptr noundef %1) #0 {
  %3 = alloca i32, align 4
  %4 = alloca ptr, align 8
  %5 = alloca ptr, align 8
  store i32 %0, ptr %3, align 4
  store ptr %1, ptr %4, align 8
  %6 = load ptr, ptr @log_fn, align 8
  %7 = icmp ne ptr %6, null
  br i1 %7, label %8, label %12

8:                                                ; preds = %2
  %9 = load ptr, ptr @log_fn, align 8
  %10 = load i32, ptr %3, align 4
  %11 = load ptr, ptr %4, align 8
  call void %9(i32 noundef %10, ptr noundef %11)
  br label %24

12:                                               ; preds = %2
  call void @llvm.lifetime.start.p0(i64 8, ptr %5) #9
  %13 = load i32, ptr %3, align 4
  switch i32 %13, label %18 [
    i32 0, label %14
    i32 1, label %15
    i32 2, label %16
    i32 3, label %17
  ]

14:                                               ; preds = %12
  store ptr @.str.1, ptr %5, align 8
  br label %19

15:                                               ; preds = %12
  store ptr @.str.2, ptr %5, align 8
  br label %19

16:                                               ; preds = %12
  store ptr @.str.3, ptr %5, align 8
  br label %19

17:                                               ; preds = %12
  store ptr @.str.4, ptr %5, align 8
  br label %19

18:                                               ; preds = %12
  store ptr @.str.5, ptr %5, align 8
  br label %19

19:                                               ; preds = %18, %17, %16, %15, %14
  %20 = load ptr, ptr @stderr, align 8
  %21 = load ptr, ptr %5, align 8
  %22 = load ptr, ptr %4, align 8
  %23 = call i32 (ptr, ptr, ...) @fprintf(ptr noundef %20, ptr noundef @.str.6, ptr noundef %21, ptr noundef %22) #9
  call void @llvm.lifetime.end.p0(i64 8, ptr %5) #9
  br label %24

24:                                               ; preds = %19, %8
  ret void
}

; Function Attrs: nounwind uwtable
define void @event_logv_(i32 noundef %0, ptr noundef %1, ptr noundef %2, ptr noundef %3) #0 {
  %5 = alloca i32, align 4
  %6 = alloca ptr, align 8
  %7 = alloca ptr, align 8
  %8 = alloca ptr, align 8
  %9 = alloca [1024 x i8], align 16
  %10 = alloca i64, align 8
  %11 = alloca i32, align 4
  store i32 %0, ptr %5, align 4
  store ptr %1, ptr %6, align 8
  store ptr %2, ptr %7, align 8
  store ptr %3, ptr %8, align 8
  call void @llvm.lifetime.start.p0(i64 1024, ptr %9) #9
  call void @llvm.lifetime.start.p0(i64 8, ptr %10) #9
  %12 = load i32, ptr %5, align 4
  %13 = icmp eq i32 %12, 0
  br i1 %13, label %14, label %18

14:                                               ; preds = %4
  %15 = load i32, ptr @event_debug_logging_mask_, align 4
  %16 = icmp ne i32 %15, 0
  br i1 %16, label %18, label %17

17:                                               ; preds = %14
  store i32 1, ptr %11, align 4
  br label %48

18:                                               ; preds = %14, %4
  %19 = load ptr, ptr %7, align 8
  %20 = icmp ne ptr %19, null
  br i1 %20, label %21, label %26

21:                                               ; preds = %18
  %22 = getelementptr inbounds [1024 x i8], ptr %9, i64 0, i64 0
  %23 = load ptr, ptr %7, align 8
  %24 = load ptr, ptr %8, align 8
  %25 = call i32 @evutil_vsnprintf(ptr noundef %22, i64 noundef 1024, ptr noundef %23, ptr noundef %24)
  br label %28

26:                                               ; preds = %18
  %27 = getelementptr inbounds [1024 x i8], ptr %9, i64 0, i64 0
  store i8 0, ptr %27, align 16
  br label %28

28:                                               ; preds = %26, %21
  %29 = load ptr, ptr %6, align 8
  %30 = icmp ne ptr %29, null
  br i1 %30, label %31, label %45

31:                                               ; preds = %28
  %32 = getelementptr inbounds [1024 x i8], ptr %9, i64 0, i64 0
  %33 = call i64 @strlen(ptr noundef %32) #12
  store i64 %33, ptr %10, align 8
  %34 = load i64, ptr %10, align 8
  %35 = icmp ult i64 %34, 1021
  br i1 %35, label %36, label %44

36:                                               ; preds = %31
  %37 = getelementptr inbounds [1024 x i8], ptr %9, i64 0, i64 0
  %38 = load i64, ptr %10, align 8
  %39 = getelementptr inbounds nuw i8, ptr %37, i64 %38
  %40 = load i64, ptr %10, align 8
  %41 = sub i64 1024, %40
  %42 = load ptr, ptr %6, align 8
  %43 = call i32 (ptr, i64, ptr, ...) @evutil_snprintf(ptr noundef %39, i64 noundef %41, ptr noundef @.str, ptr noundef %42)
  br label %44

44:                                               ; preds = %36, %31
  br label %45

45:                                               ; preds = %44, %28
  %46 = load i32, ptr %5, align 4
  %47 = getelementptr inbounds [1024 x i8], ptr %9, i64 0, i64 0
  call void @event_log(i32 noundef %46, ptr noundef %47)
  store i32 0, ptr %11, align 4
  br label %48

48:                                               ; preds = %45, %17
  call void @llvm.lifetime.end.p0(i64 8, ptr %10) #9
  call void @llvm.lifetime.end.p0(i64 1024, ptr %9) #9
  %49 = load i32, ptr %11, align 4
  switch i32 %49, label %51 [
    i32 0, label %50
    i32 1, label %50
  ]

50:                                               ; preds = %48, %48
  ret void

51:                                               ; preds = %48
  unreachable
}

; Function Attrs: nounwind uwtable
define void @event_sock_warn(i32 noundef %0, ptr noundef %1, ...) #0 {
  %3 = alloca i32, align 4
  %4 = alloca ptr, align 8
  %5 = alloca [1 x %struct.__va_list_tag], align 16
  %6 = alloca i32, align 4
  store i32 %0, ptr %3, align 4
  store ptr %1, ptr %4, align 8
  call void @llvm.lifetime.start.p0(i64 24, ptr %5) #9
  call void @llvm.lifetime.start.p0(i64 4, ptr %6) #9
  %7 = call ptr @__errno_location() #10
  %8 = load i32, ptr %7, align 4
  store i32 %8, ptr %6, align 4
  %9 = getelementptr inbounds [1 x %struct.__va_list_tag], ptr %5, i64 0, i64 0
  call void @llvm.va_start.p0(ptr %9)
  %10 = load i32, ptr %6, align 4
  %11 = call ptr @strerror(i32 noundef %10) #9
  %12 = load ptr, ptr %4, align 8
  %13 = getelementptr inbounds [1 x %struct.__va_list_tag], ptr %5, i64 0, i64 0
  call void @event_logv_(i32 noundef 2, ptr noundef %11, ptr noundef %12, ptr noundef %13)
  %14 = getelementptr inbounds [1 x %struct.__va_list_tag], ptr %5, i64 0, i64 0
  call void @llvm.va_end.p0(ptr %14)
  call void @llvm.lifetime.end.p0(i64 4, ptr %6) #9
  call void @llvm.lifetime.end.p0(i64 24, ptr %5) #9
  ret void
}