; Function Attrs: nounwind uwtable
define void @event_sock_warn(i32 noundef %0, ptr noundef %1, ...) local_unnamed_addr #4 {
  %3 = alloca [1024 x i8], align 16
  %4 = alloca [1 x %struct.__va_list_tag], align 16
  call void @llvm.lifetime.start.p0(i64 24, ptr nonnull %4) #12
  %5 = tail call ptr @__errno_location() #13
  %6 = load i32, ptr %5, align 4
  call void @llvm.va_start.p0(ptr nonnull %4)
  %7 = call ptr @strerror(i32 noundef %6) #12
  call void @llvm.lifetime.start.p0(i64 1024, ptr nonnull %3) #12
  %.not.i = icmp eq ptr %1, null
  br i1 %.not.i, label %10, label %8

8:                                                ; preds = %2
  %9 = call i32 @evutil_vsnprintf(ptr noundef nonnull %3, i64 noundef 1024, ptr noundef nonnull %1, ptr noundef nonnull %4) #12
  br label %11

10:                                               ; preds = %2
  store i8 0, ptr %3, align 16
  br label %11

11:                                               ; preds = %10, %8
  %.not12.i = icmp eq ptr %7, null
  br i1 %.not12.i, label %19, label %12

12:                                               ; preds = %11
  %13 = call i64 @strlen(ptr noundef nonnull dereferenceable(1) %3) #15
  %14 = icmp ult i64 %13, 1021
  br i1 %14, label %15, label %19

15:                                               ; preds = %12
  %16 = getelementptr inbounds nuw i8, ptr %3, i64 %13
  %17 = sub nuw nsw i64 1024, %13
  %18 = call i32 (ptr, i64, ptr, ...) @evutil_snprintf(ptr noundef nonnull %16, i64 noundef %17, ptr noundef nonnull @.str, ptr noundef nonnull %7) #12
  br label %19

19:                                               ; preds = %15, %12, %11
  %20 = load ptr, ptr @log_fn, align 8
  %.not.i.i = icmp eq ptr %20, null
  br i1 %.not.i.i, label %22, label %21

21:                                               ; preds = %19
  call void %20(i32 noundef 2, ptr noundef nonnull %3) #12
  br label %event_logv_.exit

22:                                               ; preds = %19
  %23 = load ptr, ptr @stderr, align 8
  %24 = call i32 (ptr, ptr, ...) @fprintf(ptr noundef %23, ptr noundef nonnull @.str.6, ptr noundef nonnull @.str.3, ptr noundef nonnull %3) #16
  br label %event_logv_.exit

event_logv_.exit:                                 ; preds = %21, %22
  call void @llvm.lifetime.end.p0(i64 1024, ptr nonnull %3) #12
  call void @llvm.va_end.p0(ptr nonnull %4)
  call void @llvm.lifetime.end.p0(i64 24, ptr nonnull %4) #12
  ret void
}